target datalayout = "e-m:e-p270:32:32-p271:32:32-p272:64:64-i64:64-i128:128-f80:128-n8:16:32:64-S128"
target triple = "x86_64-pc-linux-gnu"

%"class.gmx::HardwareTopology" = type <{ i32, [4 x i8], %"struct.gmx::HardwareTopology::Machine", i8, [3 x i8], float, i32, [4 x i8] }>
%"struct.gmx::HardwareTopology::Machine" = type { %"class.std::vector", %"class.std::map", %"class.std::vector.3", %"class.std::vector.8", %"struct.gmx::HardwareTopology::Numa", %"class.std::vector.23" }
%"class.std::vector" = type { %"struct.std::_Vector_base" }
%"struct.std::_Vector_base" = type { %"struct.std::_Vector_base<gmx::HardwareTopology::LogicalProcessor, std::allocator<gmx::HardwareTopology::LogicalProcessor>>::_Vector_impl" }
%"struct.std::_Vector_base<gmx::HardwareTopology::LogicalProcessor, std::allocator<gmx::HardwareTopology::LogicalProcessor>>::_Vector_impl" = type { %"struct.std::_Vector_base<gmx::HardwareTopology::LogicalProcessor, std::allocator<gmx::HardwareTopology::LogicalProcessor>>::_Vector_impl_data" }
%"struct.std::_Vector_base<gmx::HardwareTopology::LogicalProcessor, std::allocator<gmx::HardwareTopology::LogicalProcessor>>::_Vector_impl_data" = type { ptr, ptr, ptr }
%"class.std::map" = type { %"class.std::_Rb_tree" }
%"class.std::_Rb_tree" = type { %"struct.std::_Rb_tree<int, std::pair<const int, int>, std::_Select1st<std::pair<const int, int>>, std::less<int>>::_Rb_tree_impl" }
%"struct.std::_Rb_tree<int, std::pair<const int, int>, std::_Select1st<std::pair<const int, int>>, std::less<int>>::_Rb_tree_impl" = type { [8 x i8], %"struct.std::_Rb_tree_header" }
%"struct.std::_Rb_tree_header" = type { %"struct.std::_Rb_tree_node_base", i64 }
%"struct.std::_Rb_tree_node_base" = type { i32, ptr, ptr, ptr }
%"class.std::vector.3" = type { %"struct.std::_Vector_base.4" }
%"struct.std::_Vector_base.4" = type { %"struct.std::_Vector_base<gmx::HardwareTopology::Package, std::allocator<gmx::HardwareTopology::Package>>::_Vector_impl" }
%"struct.std::_Vector_base<gmx::HardwareTopology::Package, std::allocator<gmx::HardwareTopology::Package>>::_Vector_impl" = type { %"struct.std::_Vector_base<gmx::HardwareTopology::Package, std::allocator<gmx::HardwareTopology::Package>>::_Vector_impl_data" }
%"struct.std::_Vector_base<gmx::HardwareTopology::Package, std::allocator<gmx::HardwareTopology::Package>>::_Vector_impl_data" = type { ptr, ptr, ptr }
%"class.std::vector.8" = type { %"struct.std::_Vector_base.9" }
%"struct.std::_Vector_base.9" = type { %"struct.std::_Vector_base<gmx::HardwareTopology::Cache, std::allocator<gmx::HardwareTopology::Cache>>::_Vector_impl" }
%"struct.std::_Vector_base<gmx::HardwareTopology::Cache, std::allocator<gmx::HardwareTopology::Cache>>::_Vector_impl" = type { %"struct.std::_Vector_base<gmx::HardwareTopology::Cache, std::allocator<gmx::HardwareTopology::Cache>>::_Vector_impl_data" }
%"struct.std::_Vector_base<gmx::HardwareTopology::Cache, std::allocator<gmx::HardwareTopology::Cache>>::_Vector_impl_data" = type { ptr, ptr, ptr }
%"struct.gmx::HardwareTopology::Numa" = type <{ %"class.std::vector.13", float, [4 x i8], %"class.std::vector.18", float, [4 x i8] }>
%"class.std::vector.13" = type { %"struct.std::_Vector_base.14" }
%"struct.std::_Vector_base.14" = type { %"struct.std::_Vector_base<gmx::HardwareTopology::NumaNode, std::allocator<gmx::HardwareTopology::NumaNode>>::_Vector_impl" }
%"struct.std::_Vector_base<gmx::HardwareTopology::NumaNode, std::allocator<gmx::HardwareTopology::NumaNode>>::_Vector_impl" = type { %"struct.std::_Vector_base<gmx::HardwareTopology::NumaNode, std::allocator<gmx::HardwareTopology::NumaNode>>::_Vector_impl_data" }
%"struct.std::_Vector_base<gmx::HardwareTopology::NumaNode, std::allocator<gmx::HardwareTopology::NumaNode>>::_Vector_impl_data" = type { ptr, ptr, ptr }
%"class.std::vector.18" = type { %"struct.std::_Vector_base.19" }
%"struct.std::_Vector_base.19" = type { %"struct.std::_Vector_base<std::vector<float>, std::allocator<std::vector<float>>>::_Vector_impl" }
%"struct.std::_Vector_base<std::vector<float>, std::allocator<std::vector<float>>>::_Vector_impl" = type { %"struct.std::_Vector_base<std::vector<float>, std::allocator<std::vector<float>>>::_Vector_impl_data" }
%"struct.std::_Vector_base<std::vector<float>, std::allocator<std::vector<float>>>::_Vector_impl_data" = type { ptr, ptr, ptr }
%"class.std::vector.23" = type { %"struct.std::_Vector_base.24" }
%"struct.std::_Vector_base.24" = type { %"struct.std::_Vector_base<gmx::HardwareTopology::Device, std::allocator<gmx::HardwareTopology::Device>>::_Vector_impl" }
%"struct.std::_Vector_base<gmx::HardwareTopology::Device, std::allocator<gmx::HardwareTopology::Device>>::_Vector_impl" = type { %"struct.std::_Vector_base<gmx::HardwareTopology::Device, std::allocator<gmx::HardwareTopology::Device>>::_Vector_impl_data" }
%"struct.std::_Vector_base<gmx::HardwareTopology::Device, std::allocator<gmx::HardwareTopology::Device>>::_Vector_impl_data" = type { ptr, ptr, ptr }

@_ZN3gmx16HardwareTopology7MachineC1Ev = unnamed_addr alias void (ptr), ptr @_ZN3gmx16HardwareTopology7MachineC2Ev

; Function Attrs: inlinehint mustprogress nounwind uwtable
define linkonce_odr noundef float @_ZSt4ceilf(float noundef %0) #4 comdat {
  %2 = alloca float, align 4
  store float %0, ptr %2, align 4, !tbaa !80
  %3 = load float, ptr %2, align 4, !tbaa !80
  %4 = call float @llvm.ceil.f32(float %3)
  ret float %4
}

; Function Attrs: mustprogress uwtable
define internal noundef i32 @_ZN3gmx12_GLOBAL__N_113setMaxThreadsEfii(float noundef %0, i32 noundef %1, i32 noundef %2) #0 {
  %4 = alloca i32, align 4
  %5 = alloca float, align 4
  %6 = alloca i32, align 4
  %7 = alloca i32, align 4
  store float %0, ptr %5, align 4, !tbaa !80
  store i32 %1, ptr %6, align 4, !tbaa !63
  store i32 %2, ptr %7, align 4, !tbaa !63
  %8 = load float, ptr %5, align 4, !tbaa !80
  %9 = fcmp ogt float %8, 0.000000e+00
  br i1 %9, label %10, label %14

10:                                               ; preds = %3
  %11 = load float, ptr %5, align 4, !tbaa !80
  %12 = call noundef float @_ZSt4ceilf(float noundef %11)
  %13 = fptosi float %12 to i32
  store i32 %13, ptr %4, align 4
  br label %21

14:                                               ; preds = %3
  %15 = load i32, ptr %6, align 4, !tbaa !63
  %16 = icmp sgt i32 %15, 0
  br i1 %16, label %17, label %19

17:                                               ; preds = %14
  %18 = load i32, ptr %6, align 4, !tbaa !63
  store i32 %18, ptr %4, align 4
  br label %21

19:                                               ; preds = %14
  %20 = load i32, ptr %7, align 4, !tbaa !63
  store i32 %20, ptr %4, align 4
  br label %21

21:                                               ; preds = %19, %17, %10
  %22 = load i32, ptr %4, align 4
  ret i32 %22
}

; Function Attrs: mustprogress nounwind uwtable
define linkonce_odr noundef i64 @_ZNKSt6vectorIN3gmx16HardwareTopology16LogicalProcessorESaIS2_EE4sizeEv(ptr noundef nonnull align 8 dereferenceable(24) %0) #2 comdat align 2 {
  %2 = alloca ptr, align 8
  store ptr %0, ptr %2, align 8, !tbaa !88
  %3 = load ptr, ptr %2, align 8
  %4 = getelementptr inbounds nuw %"struct.std::_Vector_base", ptr %3, i32 0, i32 0
  %5 = getelementptr inbounds nuw %"struct.std::_Vector_base<gmx::HardwareTopology::LogicalProcessor, std::allocator<gmx::HardwareTopology::LogicalProcessor>>::_Vector_impl_data", ptr %4, i32 0, i32 1
  %6 = load ptr, ptr %5, align 8, !tbaa !90
  %7 = getelementptr inbounds nuw %"struct.std::_Vector_base", ptr %3, i32 0, i32 0
  %8 = getelementptr inbounds nuw %"struct.std::_Vector_base<gmx::HardwareTopology::LogicalProcessor, std::allocator<gmx::HardwareTopology::LogicalProcessor>>::_Vector_impl_data", ptr %7, i32 0, i32 0
  %9 = load ptr, ptr %8, align 8, !tbaa !91
  %10 = ptrtoint ptr %6 to i64
  %11 = ptrtoint ptr %9 to i64
  %12 = sub i64 %10, %11
  %13 = sdiv exact i64 %12, 24
  ret i64 %13
}

; Function Attrs: mustprogress uwtable
define void @_ZN3gmx16HardwareTopologyC2ERKNSt7__cxx1112basic_stringIcSt11char_traitsIcESaIcEEERKSt6vectorIiSaIiEE(ptr noundef nonnull align 8 dereferenceable(228) %0, ptr noundef nonnull align 8 dereferenceable(32) %1, ptr noundef nonnull align 8 dereferenceable(24) %2) unnamed_addr #0 align 2 personality ptr @__gxx_personality_v0 {
  %4 = alloca ptr, align 8
  %5 = alloca ptr, align 8
  %6 = alloca ptr, align 8
  %7 = alloca ptr, align 8
  %8 = alloca i32, align 4
  store ptr %0, ptr %4, align 8, !tbaa !92
  store ptr %1, ptr %5, align 8, !tbaa !59
  store ptr %2, ptr %6, align 8, !tbaa !61
  %9 = load ptr, ptr %4, align 8
  %10 = getelementptr inbounds nuw %"class.gmx::HardwareTopology", ptr %9, i32 0, i32 0
  store i32 0, ptr %10, align 8, !tbaa !4
  %11 = getelementptr inbounds nuw %"class.gmx::HardwareTopology", ptr %9, i32 0, i32 2
  call void @_ZN3gmx16HardwareTopology7MachineC1Ev(ptr noundef nonnull align 8 dereferenceable(208) %11)
  %12 = getelementptr inbounds nuw %"class.gmx::HardwareTopology", ptr %9, i32 0, i32 3
  store i8 0, ptr %12, align 8, !tbaa !672
  %13 = getelementptr inbounds nuw %"class.gmx::HardwareTopology", ptr %9, i32 0, i32 2
  %14 = load ptr, ptr %5, align 8, !tbaa !59
  %15 = load ptr, ptr %6, align 8, !tbaa !61
  %16 = invoke noundef i32 @_ZN3gmx12_GLOBAL__N_121parseSysFsCpuTopologyEPNS_16HardwareTopology7MachineERKNSt7__cxx1112basic_stringIcSt11char_traitsIcESaIcEEERKSt6vectorIiSaIiEE(ptr noundef %13, ptr noundef nonnull align 8 dereferenceable(32) %14, ptr noundef nonnull align 8 dereferenceable(24) %15)
          to label %17 unwind label %41

17:                                               ; preds = %3
  %18 = getelementptr inbounds nuw %"class.gmx::HardwareTopology", ptr %9, i32 0, i32 0
  store i32 %16, ptr %18, align 8, !tbaa !4
  %19 = load ptr, ptr %5, align 8, !tbaa !59
  %20 = invoke noundef float @_ZN3gmx12_GLOBAL__N_114detectCpuLimitERKNSt7__cxx1112basic_stringIcSt11char_traitsIcESaIcEEE(ptr noundef nonnull align 8 dereferenceable(32) %19)
          to label %21 unwind label %41

21:                                               ; preds = %17
  %22 = getelementptr inbounds nuw %"class.gmx::HardwareTopology", ptr %9, i32 0, i32 5
  store float %20, ptr %22, align 4, !tbaa !55
  %23 = getelementptr inbounds nuw %"class.gmx::HardwareTopology", ptr %9, i32 0, i32 5
  %24 = load float, ptr %23, align 4, !tbaa !55
  %25 = getelementptr inbounds nuw %"class.gmx::HardwareTopology", ptr %9, i32 0, i32 2
  %26 = getelementptr inbounds nuw %"struct.gmx::HardwareTopology::Machine", ptr %25, i32 0, i32 0
  %27 = call noundef i64 @_ZNKSt6vectorIN3gmx16HardwareTopology16LogicalProcessorESaIS2_EE4sizeEv(ptr noundef nonnull align 8 dereferenceable(24) %26) #19
  %28 = trunc i64 %27 to i32
  %29 = invoke noundef i32 @_ZN3gmx12_GLOBAL__N_113setMaxThreadsEfii(float noundef %24, i32 noundef %28, i32 noundef 1)
          to label %30 unwind label %41

30:                                               ; preds = %21
  %31 = getelementptr inbounds nuw %"class.gmx::HardwareTopology", ptr %9, i32 0, i32 6
  store i32 %29, ptr %31, align 8, !tbaa !56
  %32 = getelementptr inbounds nuw %"class.gmx::HardwareTopology", ptr %9, i32 0, i32 0
  %33 = load i32, ptr %32, align 8, !tbaa !4
  %34 = icmp eq i32 %33, 0
  br i1 %34, label %35, label %45

35:                                               ; preds = %30
  %36 = getelementptr inbounds nuw %"class.gmx::HardwareTopology", ptr %9, i32 0, i32 6
  %37 = load i32, ptr %36, align 8, !tbaa !56
  %38 = icmp sgt i32 %37, 1
  br i1 %38, label %39, label %45

39:                                               ; preds = %35
  %40 = getelementptr inbounds nuw %"class.gmx::HardwareTopology", ptr %9, i32 0, i32 0
  store i32 1, ptr %40, align 8, !tbaa !4
  br label %45

41:                                               ; preds = %21, %17, %3
  %42 = landingpad { ptr, i32 }
          cleanup
  %43 = extractvalue { ptr, i32 } %42, 0
  store ptr %43, ptr %7, align 8
  %44 = extractvalue { ptr, i32 } %42, 1
  store i32 %44, ptr %8, align 4
  call void @_ZN3gmx16HardwareTopology7MachineD2Ev(ptr noundef nonnull align 8 dereferenceable(208) %11) #19
  br label %46

45:                                               ; preds = %39, %35, %30
  ret void

46:                                               ; preds = %41
  %47 = load ptr, ptr %7, align 8
  %48 = load i32, ptr %8, align 4
  %49 = insertvalue { ptr, i32 } poison, ptr %47, 0
  %50 = insertvalue { ptr, i32 } %49, i32 %48, 1
  resume { ptr, i32 } %50
}