; Function Attrs: mustprogress uwtable
define void @_ZN3gmx16HardwareTopologyC2ERKNSt7__cxx1112basic_stringIcSt11char_traitsIcESaIcEEERKSt6vectorIiSaIiEE(ptr noundef nonnull align 8 dereferenceable(228) initializes((0, 4)) %0, ptr noundef nonnull readonly align 8 captures(none) dereferenceable(32) %1, ptr noundef nonnull readonly align 8 captures(none) dereferenceable(24) %2) unnamed_addr #0 align 2 personality ptr @__gxx_personality_v0 {
  store i32 0, ptr %0, align 8, !tbaa !4
  %4 = getelementptr inbounds nuw i8, ptr %0, i64 8
  tail call void @_ZN3gmx16HardwareTopology7MachineC1Ev(ptr noundef nonnull align 8 dereferenceable(208) %4)
  %5 = getelementptr inbounds nuw i8, ptr %0, i64 216
  store i8 0, ptr %5, align 8, !tbaa !345
  %6 = invoke fastcc noundef i32 @_ZN3gmx12_GLOBAL__N_121parseSysFsCpuTopologyEPNS_16HardwareTopology7MachineERKNSt7__cxx1112basic_stringIcSt11char_traitsIcESaIcEEERKSt6vectorIiSaIiEE(ptr noundef nonnull %4, ptr noundef nonnull align 8 dereferenceable(32) %1, ptr noundef nonnull align 8 dereferenceable(24) %2)
          to label %7 unwind label %27

7:                                                ; preds = %3
  store i32 %6, ptr %0, align 8, !tbaa !4
  %8 = invoke fastcc noundef float @_ZN3gmx12_GLOBAL__N_114detectCpuLimitERKNSt7__cxx1112basic_stringIcSt11char_traitsIcESaIcEEE(ptr noundef nonnull align 8 dereferenceable(32) %1)
          to label %9 unwind label %27

9:                                                ; preds = %7
  %10 = getelementptr inbounds nuw i8, ptr %0, i64 220
  store float %8, ptr %10, align 4, !tbaa !80
  %11 = getelementptr inbounds nuw i8, ptr %0, i64 16
  %12 = load ptr, ptr %11, align 8, !tbaa !81
  %13 = load ptr, ptr %4, align 8, !tbaa !82
  %14 = ptrtoint ptr %12 to i64
  %15 = ptrtoint ptr %13 to i64
  %16 = sub i64 %14, %15
  %17 = sdiv exact i64 %16, 24
  %18 = trunc i64 %17 to i32
  %19 = fcmp ogt float %8, 0.000000e+00
  %20 = tail call float @llvm.ceil.f32(float %8)
  %21 = fptosi float %20 to i32
  %..i = tail call i32 @llvm.smax.i32(i32 %18, i32 1)
  %.0.i = select i1 %19, i32 %21, i32 %..i
  %22 = getelementptr inbounds nuw i8, ptr %0, i64 224
  store i32 %.0.i, ptr %22, align 8, !tbaa !83
  %23 = load i32, ptr %0, align 8, !tbaa !4
  %24 = icmp eq i32 %23, 0
  %25 = icmp sgt i32 %.0.i, 1
  %or.cond = and i1 %24, %25
  br i1 %or.cond, label %26, label %29

26:                                               ; preds = %9
  store i32 1, ptr %0, align 8, !tbaa !4
  br label %29

27:                                               ; preds = %7, %3
  %28 = landingpad { ptr, i32 }
          cleanup
  tail call void @_ZN3gmx16HardwareTopology7MachineD2Ev(ptr noundef nonnull align 8 dereferenceable(208) %4) #22
  resume { ptr, i32 } %28

29:                                               ; preds = %26, %9
  ret void
}